target datalayout = "e-m:e-p270:32:32-p271:32:32-p272:64:64-i64:64-i128:128-f80:128-n8:16:32:64-S128"
target triple = "x86_64-pc-linux-gnu"

@hf_mip6_opt_mng_sub_type = internal global i32 0, align 4
@hf_mip6_opt_mng_reserved = internal global i32 0, align 4
@hf_mip6_opt_mng_mng_id = internal global i32 0, align 4
@ett_mip6_opt_mng = internal global i32 0, align 4
@proto_mip6_option_mng = internal global i32 0, align 4
@.str.762 = private unnamed_addr constant [16 x i8] c" - ALL-SESSIONS\00", align 1

; Function Attrs: null_pointer_is_valid sspstrong uwtable
define internal i32 @dissect_pmip6_opt_mng(ptr noundef %0, ptr noundef %1, ptr noundef %2, ptr noundef %3) #0 {
  %5 = alloca ptr, align 8
  %6 = alloca ptr, align 8
  %7 = alloca ptr, align 8
  %8 = alloca ptr, align 8
  %9 = alloca ptr, align 8
  %10 = alloca ptr, align 8
  %11 = alloca i32, align 4
  %12 = alloca i32, align 4
  %13 = alloca ptr, align 8
  %14 = alloca i32, align 4
  store ptr %0, ptr %5, align 8
  store ptr %1, ptr %6, align 8
  store ptr %2, ptr %7, align 8
  store ptr %3, ptr %8, align 8
  call void @llvm.lifetime.start.p0(i64 8, ptr %9) #6
  call void @llvm.lifetime.start.p0(i64 8, ptr %10) #6
  call void @llvm.lifetime.start.p0(i64 4, ptr %11) #6
  %15 = load ptr, ptr %5, align 8
  %16 = call i32 @tvb_reported_length(ptr noundef %15)
  %17 = sub i32 %16, 2
  store i32 %17, ptr %11, align 4
  call void @llvm.lifetime.start.p0(i64 4, ptr %12) #6
  store i32 2, ptr %12, align 4
  call void @llvm.lifetime.start.p0(i64 8, ptr %13) #6
  call void @llvm.lifetime.start.p0(i64 4, ptr %14) #6
  %18 = load ptr, ptr %7, align 8
  %19 = load ptr, ptr %6, align 8
  %20 = load ptr, ptr %5, align 8
  %21 = load i32, ptr @proto_mip6_option_mng, align 4
  %22 = load i32, ptr @ett_mip6_opt_mng, align 4
  %23 = load i32, ptr %11, align 4
  %24 = call ptr @mip6_fixed_option_header(ptr noundef %18, ptr noundef %19, ptr noundef %20, i32 noundef %21, i32 noundef %22, ptr noundef %10, i32 noundef %23, i32 noundef 6)
  store ptr %24, ptr %9, align 8
  %25 = load ptr, ptr %9, align 8
  %26 = load i32, ptr @hf_mip6_opt_mng_sub_type, align 4
  %27 = load ptr, ptr %5, align 8
  %28 = load i32, ptr %12, align 4
  %29 = call ptr @proto_tree_add_item(ptr noundef %25, i32 noundef %26, ptr noundef %27, i32 noundef %28, i32 noundef 1, i32 noundef 0)
  %30 = load i32, ptr %12, align 4
  %31 = add i32 %30, 1
  store i32 %31, ptr %12, align 4
  %32 = load ptr, ptr %9, align 8
  %33 = load i32, ptr @hf_mip6_opt_mng_reserved, align 4
  %34 = load ptr, ptr %5, align 8
  %35 = load i32, ptr %12, align 4
  %36 = call ptr @proto_tree_add_item(ptr noundef %32, i32 noundef %33, ptr noundef %34, i32 noundef %35, i32 noundef 1, i32 noundef 0)
  %37 = load i32, ptr %12, align 4
  %38 = add i32 %37, 1
  store i32 %38, ptr %12, align 4
  %39 = load ptr, ptr %9, align 8
  %40 = load i32, ptr @hf_mip6_opt_mng_mng_id, align 4
  %41 = load ptr, ptr %5, align 8
  %42 = load i32, ptr %12, align 4
  %43 = call ptr @proto_tree_add_item_ret_uint(ptr noundef %39, i32 noundef %40, ptr noundef %41, i32 noundef %42, i32 noundef 4, i32 noundef 0, ptr noundef %14)
  store ptr %43, ptr %13, align 8
  %44 = load i32, ptr %14, align 4
  %45 = icmp eq i32 %44, 1
  br i1 %45, label %46, label %48

46:                                               ; preds = %4
  %47 = load ptr, ptr %13, align 8
  call void (ptr, ptr, ...) @proto_item_append_text(ptr noundef %47, ptr noundef @.str.762)
  br label %48

48:                                               ; preds = %46, %4
  %49 = load ptr, ptr %5, align 8
  %50 = call i32 @tvb_captured_length(ptr noundef %49)
  call void @llvm.lifetime.end.p0(i64 4, ptr %14) #6
  call void @llvm.lifetime.end.p0(i64 8, ptr %13) #6
  call void @llvm.lifetime.end.p0(i64 4, ptr %12) #6
  call void @llvm.lifetime.end.p0(i64 4, ptr %11) #6
  call void @llvm.lifetime.end.p0(i64 8, ptr %10) #6
  call void @llvm.lifetime.end.p0(i64 8, ptr %9) #6
  ret i32 %50
}