; Function Attrs: null_pointer_is_valid sspstrong uwtable
define internal i32 @dissect_pmip6_opt_mng(ptr noundef %0, ptr noundef %1, ptr noundef %2, ptr readnone captures(none) %3) #0 {
  %5 = alloca ptr, align 8
  %6 = alloca i32, align 4
  call void @llvm.lifetime.start.p0(i64 8, ptr nonnull %5) #5
  %7 = tail call i32 @tvb_reported_length(ptr noundef %0)
  %8 = add i32 %7, -2
  call void @llvm.lifetime.start.p0(i64 4, ptr nonnull %6) #5
  %9 = load i32, ptr @proto_mip6_option_mng, align 4
  %10 = load i32, ptr @ett_mip6_opt_mng, align 4
  %11 = call fastcc ptr @mip6_fixed_option_header(ptr noundef %2, ptr noundef %1, ptr noundef %0, i32 noundef %9, i32 noundef %10, ptr noundef nonnull %5, i32 noundef %8, i32 noundef 6)
  %12 = load i32, ptr @hf_mip6_opt_mng_sub_type, align 4
  %13 = tail call ptr @proto_tree_add_item(ptr noundef %11, i32 noundef %12, ptr noundef %0, i32 noundef 2, i32 noundef 1, i32 noundef 0)
  %14 = load i32, ptr @hf_mip6_opt_mng_reserved, align 4
  %15 = tail call ptr @proto_tree_add_item(ptr noundef %11, i32 noundef %14, ptr noundef %0, i32 noundef 3, i32 noundef 1, i32 noundef 0)
  %16 = load i32, ptr @hf_mip6_opt_mng_mng_id, align 4
  %17 = call ptr @proto_tree_add_item_ret_uint(ptr noundef %11, i32 noundef %16, ptr noundef %0, i32 noundef 4, i32 noundef 4, i32 noundef 0, ptr noundef nonnull %6)
  %18 = load i32, ptr %6, align 4
  %19 = icmp eq i32 %18, 1
  br i1 %19, label %20, label %21

20:                                               ; preds = %4
  call void (ptr, ptr, ...) @proto_item_append_text(ptr noundef %17, ptr noundef nonnull @.str.762)
  br label %21

21:                                               ; preds = %20, %4
  %22 = call i32 @tvb_captured_length(ptr noundef %0)
  call void @llvm.lifetime.end.p0(i64 4, ptr nonnull %6) #5
  call void @llvm.lifetime.end.p0(i64 8, ptr nonnull %5) #5
  ret i32 %22
}